; ModuleID = '9/419.c'
source_filename = "9/419.c"
target datalayout = "e-m:e-p270:32:32-p271:32:32-p272:64:64-i64:64-f80:128-n8:16:32:64-S128"
target triple = "x86_64-pc-linux-gnu"

%struct.P = type { [10 x i8], i32 }

@.str = private unnamed_addr constant [3 x i8] c"%d\00", align 1
@.str.1 = private unnamed_addr constant [5 x i8] c"%s%d\00", align 1
@pb = common dso_local global [100 x %struct.P] zeroinitializer, align 16
@pa = common dso_local global [100 x %struct.P] zeroinitializer, align 16
@.str.2 = private unnamed_addr constant [4 x i8] c"%s\0A\00", align 1

; Function Attrs: noinline nounwind uwtable
define dso_local i32 @main() #0 {
  %1 = alloca i32, align 4
  %2 = alloca i32, align 4
  %3 = alloca i32, align 4
  %4 = alloca i32, align 4
  %5 = alloca i32, align 4
  %6 = alloca i32, align 4
  %7 = alloca i32, align 4
  %8 = alloca i32, align 4
  %9 = alloca i32, align 4
  %10 = alloca %struct.P, align 4
  %11 = alloca %struct.P, align 4
  store i32 0, i32* %1, align 4
  store i32 0, i32* %3, align 4
  store i32 0, i32* %4, align 4
  %12 = call i32 (i8*, ...) @__isoc99_scanf(i8* getelementptr inbounds ([3 x i8], [3 x i8]* @.str, i64 0, i64 0), i32* %2)
  store i32 0, i32* %5, align 4
  br label %13

13:                                               ; preds = %42, %0
  %14 = load i32, i32* %5, align 4
  %15 = load i32, i32* %2, align 4
  %16 = icmp slt i32 %14, %15
  br i1 %16, label %17, label %45

17:                                               ; preds = %13
  %18 = getelementptr inbounds %struct.P, %struct.P* %10, i32 0, i32 0
  %19 = getelementptr inbounds [10 x i8], [10 x i8]* %18, i64 0, i64 0
  %20 = getelementptr inbounds %struct.P, %struct.P* %10, i32 0, i32 1
  %21 = call i32 (i8*, ...) @__isoc99_scanf(i8* getelementptr inbounds ([5 x i8], [5 x i8]* @.str.1, i64 0, i64 0), i8* %19, i32* %20)
  %22 = getelementptr inbounds %struct.P, %struct.P* %10, i32 0, i32 1
  %23 = load i32, i32* %22, align 4
  %24 = icmp sge i32 %23, 60
  br i1 %24, label %25, label %33

25:                                               ; preds = %17
  %26 = load i32, i32* %3, align 4
  %27 = sext i32 %26 to i64
  %28 = getelementptr inbounds [100 x %struct.P], [100 x %struct.P]* @pb, i64 0, i64 %27
  %29 = bitcast %struct.P* %28 to i8*
  %30 = bitcast %struct.P* %10 to i8*
  call void @llvm.memcpy.p0i8.p0i8.i64(i8* align 16 %29, i8* align 4 %30, i64 16, i1 false)
  %31 = load i32, i32* %3, align 4
  %32 = add nsw i32 %31, 1
  store i32 %32, i32* %3, align 4
  br label %41

33:                                               ; preds = %17
  %34 = load i32, i32* %4, align 4
  %35 = sext i32 %34 to i64
  %36 = getelementptr inbounds [100 x %struct.P], [100 x %struct.P]* @pa, i64 0, i64 %35
  %37 = bitcast %struct.P* %36 to i8*
  %38 = bitcast %struct.P* %10 to i8*
  call void @llvm.memcpy.p0i8.p0i8.i64(i8* align 16 %37, i8* align 4 %38, i64 16, i1 false)
  %39 = load i32, i32* %4, align 4
  %40 = add nsw i32 %39, 1
  store i32 %40, i32* %4, align 4
  br label %41

41:                                               ; preds = %33, %25
  br label %42

42:                                               ; preds = %41
  %43 = load i32, i32* %5, align 4
  %44 = add nsw i32 %43, 1
  store i32 %44, i32* %5, align 4
  br label %13

45:                                               ; preds = %13
  store i32 0, i32* %6, align 4
  br label %46

46:                                               ; preds = %96, %45
  %47 = load i32, i32* %6, align 4
  %48 = load i32, i32* %3, align 4
  %49 = icmp slt i32 %47, %48
  br i1 %49, label %50, label %99

50:                                               ; preds = %46
  store i32 0, i32* %7, align 4
  br label %51

51:                                               ; preds = %92, %50
  %52 = load i32, i32* %7, align 4
  %53 = load i32, i32* %3, align 4
  %54 = load i32, i32* %6, align 4
  %55 = sub nsw i32 %53, %54
  %56 = icmp slt i32 %52, %55
  br i1 %56, label %57, label %95

57:                                               ; preds = %51
  %58 = load i32, i32* %7, align 4
  %59 = sext i32 %58 to i64
  %60 = getelementptr inbounds [100 x %struct.P], [100 x %struct.P]* @pb, i64 0, i64 %59
  %61 = getelementptr inbounds %struct.P, %struct.P* %60, i32 0, i32 1
  %62 = load i32, i32* %61, align 4
  %63 = load i32, i32* %7, align 4
  %64 = add nsw i32 %63, 1
  %65 = sext i32 %64 to i64
  %66 = getelementptr inbounds [100 x %struct.P], [100 x %struct.P]* @pb, i64 0, i64 %65
  %67 = getelementptr inbounds %struct.P, %struct.P* %66, i32 0, i32 1
  %68 = load i32, i32* %67, align 4
  %69 = icmp slt i32 %62, %68
  br i1 %69, label %70, label %91

70:                                               ; preds = %57
  %71 = load i32, i32* %7, align 4
  %72 = sext i32 %71 to i64
  %73 = getelementptr inbounds [100 x %struct.P], [100 x %struct.P]* @pb, i64 0, i64 %72
  %74 = bitcast %struct.P* %11 to i8*
  %75 = bitcast %struct.P* %73 to i8*
  call void @llvm.memcpy.p0i8.p0i8.i64(i8* align 4 %74, i8* align 16 %75, i64 16, i1 false)
  %76 = load i32, i32* %7, align 4
  %77 = sext i32 %76 to i64
  %78 = getelementptr inbounds [100 x %struct.P], [100 x %struct.P]* @pb, i64 0, i64 %77
  %79 = load i32, i32* %7, align 4
  %80 = add nsw i32 %79, 1
  %81 = sext i32 %80 to i64
  %82 = getelementptr inbounds [100 x %struct.P], [100 x %struct.P]* @pb, i64 0, i64 %81
  %83 = bitcast %struct.P* %78 to i8*
  %84 = bitcast %struct.P* %82 to i8*
  call void @llvm.memcpy.p0i8.p0i8.i64(i8* align 16 %83, i8* align 16 %84, i64 16, i1 false)
  %85 = load i32, i32* %7, align 4
  %86 = add nsw i32 %85, 1
  %87 = sext i32 %86 to i64
  %88 = getelementptr inbounds [100 x %struct.P], [100 x %struct.P]* @pb, i64 0, i64 %87
  %89 = bitcast %struct.P* %88 to i8*
  %90 = bitcast %struct.P* %11 to i8*
  call void @llvm.memcpy.p0i8.p0i8.i64(i8* align 16 %89, i8* align 4 %90, i64 16, i1 false)
  br label %91

91:                                               ; preds = %70, %57
  br label %92

92:                                               ; preds = %91
  %93 = load i32, i32* %7, align 4
  %94 = add nsw i32 %93, 1
  store i32 %94, i32* %7, align 4
  br label %51

95:                                               ; preds = %51
  br label %96

96:                                               ; preds = %95
  %97 = load i32, i32* %6, align 4
  %98 = add nsw i32 %97, 1
  store i32 %98, i32* %6, align 4
  br label %46

99:                                               ; preds = %46
  store i32 0, i32* %8, align 4
  br label %100

100:                                              ; preds = %111, %99
  %101 = load i32, i32* %8, align 4
  %102 = load i32, i32* %3, align 4
  %103 = icmp slt i32 %101, %102
  br i1 %103, label %104, label %114

104:                                              ; preds = %100
  %105 = load i32, i32* %8, align 4
  %106 = sext i32 %105 to i64
  %107 = getelementptr inbounds [100 x %struct.P], [100 x %struct.P]* @pb, i64 0, i64 %106
  %108 = getelementptr inbounds %struct.P, %struct.P* %107, i32 0, i32 0
  %109 = getelementptr inbounds [10 x i8], [10 x i8]* %108, i64 0, i64 0
  %110 = call i32 (i8*, ...) @printf(i8* getelementptr inbounds ([4 x i8], [4 x i8]* @.str.2, i64 0, i64 0), i8* %109)
  br label %111

111:                                              ; preds = %104
  %112 = load i32, i32* %8, align 4
  %113 = add nsw i32 %112, 1
  store i32 %113, i32* %8, align 4
  br label %100

114:                                              ; preds = %100
  store i32 0, i32* %9, align 4
  br label %115

115:                                              ; preds = %126, %114
  %116 = load i32, i32* %9, align 4
  %117 = load i32, i32* %4, align 4
  %118 = icmp slt i32 %116, %117
  br i1 %118, label %119, label %129

119:                                              ; preds = %115
  %120 = load i32, i32* %9, align 4
  %121 = sext i32 %120 to i64
  %122 = getelementptr inbounds [100 x %struct.P], [100 x %struct.P]* @pa, i64 0, i64 %121
  %123 = getelementptr inbounds %struct.P, %struct.P* %122, i32 0, i32 0
  %124 = getelementptr inbounds [10 x i8], [10 x i8]* %123, i64 0, i64 0
  %125 = call i32 (i8*, ...) @printf(i8* getelementptr inbounds ([4 x i8], [4 x i8]* @.str.2, i64 0, i64 0), i8* %124)
  br label %126

126:                                              ; preds = %119
  %127 = load i32, i32* %9, align 4
  %128 = add nsw i32 %127, 1
  store i32 %128, i32* %9, align 4
  br label %115

129:                                              ; preds = %115
  ret i32 0
}

declare dso_local i32 @__isoc99_scanf(i8*, ...) #1

; Function Attrs: argmemonly nounwind willreturn
declare void @llvm.memcpy.p0i8.p0i8.i64(i8* noalias nocapture writeonly, i8* noalias nocapture readonly, i64, i1 immarg) #2

declare dso_local i32 @printf(i8*, ...) #1


!llvm.module.flags = !{!0}
!llvm.ident = !{!1}

!0 = !{i32 1, !"wchar_size", i32 4}
!1 = !{!"clang version 10.0.0-4ubuntu1 "}
